; Function Attrs: null_pointer_is_valid sspstrong uwtable
define internal fastcc void @decode_GIAS_SubmitStandingQueryRequest_resume(ptr noundef %0, ptr noundef %1, ptr noundef readonly captures(none) %2) unnamed_addr #0 {
  %4 = getelementptr inbounds nuw i8, ptr %2, i64 7
  %5 = load i8, ptr %4, align 1
  switch i8 %5, label %11 [
    i8 0, label %14
    i8 1, label %6
  ]

6:                                                ; preds = %3
  %7 = getelementptr inbounds nuw i8, ptr %2, i64 16
  %8 = load i32, ptr %7, align 8
  %switch = icmp ult i32 %8, 2
  br i1 %switch, label %14, label %9

9:                                                ; preds = %6
  %10 = tail call ptr (ptr, ptr, ptr, ptr, ...) @expert_add_info_format(ptr noundef %0, ptr noundef %1, ptr noundef nonnull @ei_gias_unknown_exception, ptr noundef nonnull @.str.826, i32 noundef %8)
  br label %14

11:                                               ; preds = %3
  %12 = zext i8 %5 to i32
  %13 = tail call ptr (ptr, ptr, ptr, ptr, ...) @expert_add_info_format(ptr noundef %0, ptr noundef %1, ptr noundef nonnull @ei_gias_unknown_giop_msg, ptr noundef nonnull @.str.827, i32 noundef %12)
  br label %14

14:                                               ; preds = %6, %9, %11, %3
  ret void
}